Certificate:
    Data:
        Version: 3 (0x2)
        Serial Number: 4096 (0x1000)
    Signature Algorithm: sha256WithRSAEncryption
        Issuer: C=CN, ST=WUHAN, L=WUHAN, O=HUST, OU=HUSTCSE, CN=www.hwk.com/emailAddress=985523449@qq.com
        Validity
            Not Before: May  7 11:27:24 2022 GMT
            Not After : May  7 11:27:24 2023 GMT
        Subject: C=CN, ST=WUHAN, O=HUST, OU=HUSTCSE, CN=www.hwkserver.com/emailAddress=985523449@qq.com
        Subject Public Key Info:
            Public Key Algorithm: rsaEncryption
                Public-Key: (1024 bit)
                Modulus:
                    00:a3:96:c0:43:90:7b:c4:ce:43:87:57:dc:2d:a5:
                    4a:95:5e:e3:23:9a:e7:27:66:fc:70:f1:45:37:72:
                    6a:80:6c:24:0b:ff:f6:1d:19:27:b0:8b:a2:c5:72:
                    3e:ad:ff:d0:53:89:d4:8b:d8:b0:01:e5:4a:02:18:
                    51:5c:9b:5f:03:98:a5:e0:5e:c7:5e:ab:87:6d:e5:
                    75:af:5d:bb:04:49:50:2c:b9:b4:1e:bd:a7:53:5b:
                    2f:f2:13:55:53:a4:ad:72:5d:e0:10:44:84:bf:08:
                    ff:5f:dc:c3:0e:a5:b9:a7:68:ce:5c:af:28:7d:34:
                    72:c2:36:cb:05:00:1f:e2:5b
                Exponent: 65537 (0x10001)
        X509v3 extensions:
            X509v3 Basic Constraints: 
                CA:FALSE
            Netscape Comment: 
                OpenSSL Generated Certificate
            X509v3 Subject Key Identifier: 
                C1:8D:FB:76:36:E0:42:2C:7F:89:91:77:69:8B:C7:7E:90:F3:C8:6D
            X509v3 Authority Key Identifier: 
                keyid:80:60:EA:10:0B:4C:62:BB:A7:EB:24:9F:FB:0E:4B:C3:B1:01:FE:56

    Signature Algorithm: sha256WithRSAEncryption
         45:a3:c6:d1:0b:9c:15:be:9e:28:38:cc:c8:c8:d7:dd:94:7d:
         72:db:f2:ff:5e:a9:0a:3b:04:53:cb:89:60:7e:69:c5:76:51:
         6a:e7:56:ae:3b:02:63:8d:6f:14:b2:5d:ce:0b:ea:3f:db:3e:
         e2:3f:c3:a5:d6:1c:42:74:e5:44:40:11:51:6c:20:77:8c:cf:
         53:4f:65:8e:04:f5:90:ff:1e:03:03:5d:c2:52:21:96:39:98:
         3c:a0:eb:a2:e4:53:d6:70:ae:dd:36:3c:c3:ee:54:f8:b6:ba:
         b1:a0:66:cd:39:e7:38:0c:17:46:11:09:98:76:05:0b:ed:a0:
         ad:cd:75:c8:0b:59:62:db:64:88:9a:8e:b5:44:a2:5c:dc:f5:
         4a:b3:32:0e:9a:d8:c9:77:fa:2f:9e:44:78:39:51:bd:a4:4c:
         f2:9f:67:c3:b6:5a:2f:cc:1e:43:4e:d7:63:b3:3f:1e:ba:d2:
         07:af:4f:34:69:d9:f6:03:b7:1c:33:4d:16:8a:67:31:2e:bf:
         09:eb:74:c0:cc:91:84:c7:cd:a6:13:05:13:2f:9c:33:85:64:
         24:0f:aa:aa:ba:c9:52:d2:18:86:bb:0c:54:27:2a:e3:07:8a:
         fe:bf:70:2c:6a:8e:fa:41:71:04:01:c4:50:f6:45:db:f3:f1:
         bf:c6:f8:3a
-----BEGIN CERTIFICATE-----
MIIDdDCCAlygAwIBAgICEAAwDQYJKoZIhvcNAQELBQAwgYUxCzAJBgNVBAYTAkNO
MQ4wDAYDVQQIDAVXVUhBTjEOMAwGA1UEBwwFV1VIQU4xDTALBgNVBAoMBEhVU1Qx
EDAOBgNVBAsMB0hVU1RDU0UxFDASBgNVBAMMC3d3dy5od2suY29tMR8wHQYJKoZI
hvcNAQkBFhA5ODU1MjM0NDlAcXEuY29tMB4XDTIyMDUwNzExMjcyNFoXDTIzMDUw
NzExMjcyNFowezELMAkGA1UEBhMCQ04xDjAMBgNVBAgMBVdVSEFOMQ0wCwYDVQQK
DARIVVNUMRAwDgYDVQQLDAdIVVNUQ1NFMRowGAYDVQQDDBF3d3cuaHdrc2VydmVy
LmNvbTEfMB0GCSqGSIb3DQEJARYQOTg1NTIzNDQ5QHFxLmNvbTCBnzANBgkqhkiG
9w0BAQEFAAOBjQAwgYkCgYEAo5bAQ5B7xM5Dh1fcLaVKlV7jI5rnJ2b8cPFFN3Jq
gGwkC//2HRknsIuixXI+rf/QU4nUi9iwAeVKAhhRXJtfA5il4F7HXquHbeV1r127
BElQLLm0Hr2nU1sv8hNVU6Stcl3gEESEvwj/X9zDDqW5p2jOXK8ofTRywjbLBQAf
4lsCAwEAAaN7MHkwCQYDVR0TBAIwADAsBglghkgBhvhCAQ0EHxYdT3BlblNTTCBH
ZW5lcmF0ZWQgQ2VydGlmaWNhdGUwHQYDVR0OBBYEFMGN+3Y24EIsf4mRd2mLx36Q
88htMB8GA1UdIwQYMBaAFIBg6hALTGK7p+skn/sOS8OxAf5WMA0GCSqGSIb3DQEB
CwUAA4IBAQBFo8bRC5wVvp4oOMzIyNfdlH1y2/L/XqkKOwRTy4lgfmnFdlFq51au
OwJjjW8Usl3OC+o/2z7iP8Ol1hxCdOVEQBFRbCB3jM9TT2WOBPWQ/x4DA13CUiGW
OZg8oOui5FPWcK7dNjzD7lT4trqxoGbNOec4DBdGEQmYdgUL7aCtzXXIC1li22SI
mo61RKJc3PVKszIOmtjJd/ovnkR4OVG9pEzyn2fDtlovzB5DTtdjsz8eutIHr080
adn2A7ccM00WimcxLr8J63TAzJGEx82mEwUTL5wzhWQkD6qquslS0hiGuwxUJyrj
B4r+v3Asao76QXEEAcRQ9kXb8/G/xvg6
-----END CERTIFICATE-----
