Certificate:
    Data:
        Version: 3 (0x2)
        Serial Number: 4097 (0x1001)
    Signature Algorithm: sha256WithRSAEncryption
        Issuer: C=CN, ST=WUHAN, L=WUHAN, O=HUST, OU=HUSTCSE, CN=www.hwk.com/emailAddress=985523449@qq.com
        Validity
            Not Before: May  7 11:28:11 2022 GMT
            Not After : May  7 11:28:11 2023 GMT
        Subject: C=CN, ST=WUHAN, O=HUST, OU=HUSTCSE, CN=www.hwkclient.com/emailAddress=985523449@qq.com
        Subject Public Key Info:
            Public Key Algorithm: rsaEncryption
                Public-Key: (1024 bit)
                Modulus:
                    00:eb:6f:2a:41:dc:35:b2:1f:55:13:c2:61:f2:25:
                    82:d5:3a:72:2c:e6:21:97:2f:73:d6:f2:86:c8:02:
                    6a:2d:77:bb:ab:ec:f1:f7:67:13:b3:03:32:fb:90:
                    0d:66:e8:43:7b:68:99:f3:aa:02:a1:ba:1a:e0:19:
                    51:e5:b4:71:86:78:c3:15:ec:03:bf:e6:db:75:85:
                    6a:42:2b:30:ae:04:5f:2d:f9:48:83:c8:f7:d3:27:
                    a9:c1:ce:a8:f2:d6:a1:85:88:b2:e1:e4:ec:66:35:
                    b5:50:78:b1:fc:bb:bf:c8:f6:66:d0:7d:c4:48:62:
                    65:39:1f:a2:36:63:80:9e:87
                Exponent: 65537 (0x10001)
        X509v3 extensions:
            X509v3 Basic Constraints: 
                CA:FALSE
            Netscape Comment: 
                OpenSSL Generated Certificate
            X509v3 Subject Key Identifier: 
                BE:A8:4D:A7:F6:8D:CD:88:BC:86:8E:9C:6D:E2:27:5A:E4:AA:84:A7
            X509v3 Authority Key Identifier: 
                keyid:80:60:EA:10:0B:4C:62:BB:A7:EB:24:9F:FB:0E:4B:C3:B1:01:FE:56

    Signature Algorithm: sha256WithRSAEncryption
         ba:3a:43:c9:fc:73:20:02:5c:4d:1a:ce:e9:76:2f:5f:53:85:
         b2:db:a7:53:04:2e:69:71:b0:97:ca:10:e4:94:2b:95:5e:af:
         5e:0d:93:22:bd:7e:b0:20:d7:7b:3d:17:e5:b9:76:c8:43:b5:
         91:15:ab:52:1a:72:71:3a:67:24:e9:42:cf:34:88:7a:21:4e:
         4a:e1:bc:fc:09:9f:2f:97:5a:de:0b:1d:dd:20:ae:1c:d1:2a:
         a0:9f:f6:0a:69:bd:8b:00:f3:94:29:68:da:6b:44:f8:be:6a:
         cf:10:ae:71:e0:34:40:3e:a6:6d:39:22:f5:3f:17:10:ae:df:
         44:e2:56:aa:8c:49:af:83:b3:90:2f:7f:82:a7:a7:2e:49:bd:
         d9:be:fa:b2:cb:d9:4b:65:dc:fa:e5:59:5a:b7:a0:86:8c:54:
         4e:db:70:0d:c0:69:00:55:4c:92:d9:39:ed:16:6a:fe:c5:9c:
         0b:09:1a:de:aa:2b:72:94:2a:b6:e8:8f:40:cd:13:f2:d1:7d:
         a1:bf:7d:fd:b0:85:72:3e:af:fb:44:87:c8:ab:cd:e9:4d:6e:
         6e:36:8d:b8:e2:56:02:cc:46:85:c1:ff:f9:10:9b:2c:78:d5:
         9b:7f:9f:6c:17:c9:36:86:80:fa:aa:c2:9e:21:7e:51:98:20:
         f7:a6:06:ca
-----BEGIN CERTIFICATE-----
MIIDdDCCAlygAwIBAgICEAEwDQYJKoZIhvcNAQELBQAwgYUxCzAJBgNVBAYTAkNO
MQ4wDAYDVQQIDAVXVUhBTjEOMAwGA1UEBwwFV1VIQU4xDTALBgNVBAoMBEhVU1Qx
EDAOBgNVBAsMB0hVU1RDU0UxFDASBgNVBAMMC3d3dy5od2suY29tMR8wHQYJKoZI
hvcNAQkBFhA5ODU1MjM0NDlAcXEuY29tMB4XDTIyMDUwNzExMjgxMVoXDTIzMDUw
NzExMjgxMVowezELMAkGA1UEBhMCQ04xDjAMBgNVBAgMBVdVSEFOMQ0wCwYDVQQK
DARIVVNUMRAwDgYDVQQLDAdIVVNUQ1NFMRowGAYDVQQDDBF3d3cuaHdrY2xpZW50
LmNvbTEfMB0GCSqGSIb3DQEJARYQOTg1NTIzNDQ5QHFxLmNvbTCBnzANBgkqhkiG
9w0BAQEFAAOBjQAwgYkCgYEA628qQdw1sh9VE8Jh8iWC1TpyLOYhly9z1vKGyAJq
LXe7q+zx92cTswMy+5ANZuhDe2iZ86oCoboa4BlR5bRxhnjDFewDv+bbdYVqQisw
rgRfLflIg8j30yepwc6o8tahhYiy4eTsZjW1UHix/Lu/yPZm0H3ESGJlOR+iNmOA
nocCAwEAAaN7MHkwCQYDVR0TBAIwADAsBglghkgBhvhCAQ0EHxYdT3BlblNTTCBH
ZW5lcmF0ZWQgQ2VydGlmaWNhdGUwHQYDVR0OBBYEFL6oTaf2jc2IvIaOnG3iJ1rk
qoSnMB8GA1UdIwQYMBaAFIBg6hALTGK7p+skn/sOS8OxAf5WMA0GCSqGSIb3DQEB
CwUAA4IBAQC6OkPJ/HMgAlxNGs7pdi9fU4Wy26dTBC5pcbCXyhDklCuVXq9eDZMi
vX6wINd7PRfluXbIQ7WRFatSGnJxOmck6ULPNIh6IU5K4bz8CZ8vl1reCx3dIK4c
0Sqgn/YKab2LAPOUKWjaa0T4vmrPEK5x4DRAPqZtOSL1PxcQrt9E4laqjEmvg7OQ
L3+Cp6cuSb3Zvvqyy9lLZdz65Vlat6CGjFRO23ANwGkAVUyS2TntFmr+xZwLCRre
qitylCq26I9AzRPy0X2hv339sIVyPq/7RIfIq83pTW5uNo244lYCzEaFwf/5EJss
eNWbf59sF8k2hoD6qsKeIX5RmCD3pgbK
-----END CERTIFICATE-----
